target datalayout = "e-m:e-p270:32:32-p271:32:32-p272:64:64-i64:64-i128:128-f80:128-n8:16:32:64-S128"
target triple = "x86_64-pc-linux-gnu"

%"class.llvm::MCRegisterClass" = type { ptr, ptr, i32, i16, i16, i16, i16, i8, i8, i8 }
%"class.llvm::MCOperand" = type { i8, %union.anon.13 }
%union.anon.13 = type { i64 }
%"class.llvm::MCRegister" = type { i32 }
%"class.llvm::MCInst" = type { i32, i32, %"class.llvm::SMLoc", %"class.llvm::SmallVector" }
%"class.llvm::SMLoc" = type { ptr }
%"class.llvm::SmallVector" = type { %"class.llvm::SmallVectorImpl", %"struct.llvm::SmallVectorStorage" }
%"class.llvm::SmallVectorImpl" = type { %"class.llvm::SmallVectorTemplateBase" }
%"class.llvm::SmallVectorTemplateBase" = type { %"class.llvm::SmallVectorTemplateCommon" }
%"class.llvm::SmallVectorTemplateCommon" = type { %"class.llvm::SmallVectorBase" }
%"class.llvm::SmallVectorBase" = type { ptr, i32, i32 }
%"struct.llvm::SmallVectorStorage" = type { [96 x i8] }

@_ZN4llvm24AArch64MCRegisterClassesE = external global [0 x %"class.llvm::MCRegisterClass"], align 8

; Function Attrs: mustprogress nounwind uwtable
define linkonce_odr hidden noundef ptr @_ZNK4llvm25SmallVectorTemplateCommonINS_9MCOperandEvE10getFirstElEv(ptr noundef nonnull align 8 dereferenceable(16) %0) #0 comdat align 2 {
  %2 = alloca ptr, align 8
  store ptr %0, ptr %2, align 8
  %3 = load ptr, ptr %2, align 8
  %4 = getelementptr inbounds i8, ptr %3, i64 16
  ret ptr %4
}

; Function Attrs: mustprogress nounwind uwtable
define linkonce_odr hidden void @_ZN4llvm25SmallVectorTemplateCommonINS_9MCOperandEvE8grow_podEmm(ptr noundef nonnull align 8 dereferenceable(16) %0, i64 noundef %1, i64 noundef %2) #0 comdat align 2 {
  %4 = alloca ptr, align 8
  %5 = alloca i64, align 8
  %6 = alloca i64, align 8
  store ptr %0, ptr %4, align 8
  store i64 %1, ptr %5, align 8
  store i64 %2, ptr %6, align 8
  %7 = load ptr, ptr %4, align 8
  %8 = call noundef ptr @_ZNK4llvm25SmallVectorTemplateCommonINS_9MCOperandEvE10getFirstElEv(ptr noundef nonnull align 8 dereferenceable(16) %7)
  %9 = load i64, ptr %5, align 8
  %10 = load i64, ptr %6, align 8
  call void @_ZN4llvm15SmallVectorBaseIjE8grow_podEPvmm(ptr noundef nonnull align 8 dereferenceable(16) %7, ptr noundef %8, i64 noundef %9, i64 noundef %10)
  ret void
}

; Function Attrs: mustprogress nounwind uwtable
define linkonce_odr hidden void @_ZN4llvm23SmallVectorTemplateBaseINS_9MCOperandELb1EE4growEm(ptr noundef nonnull align 8 dereferenceable(16) %0, i64 noundef %1) #0 comdat align 2 {
  %3 = alloca ptr, align 8
  %4 = alloca i64, align 8
  store ptr %0, ptr %3, align 8
  store i64 %1, ptr %4, align 8
  %5 = load ptr, ptr %3, align 8
  %6 = load i64, ptr %4, align 8
  call void @_ZN4llvm25SmallVectorTemplateCommonINS_9MCOperandEvE8grow_podEmm(ptr noundef nonnull align 8 dereferenceable(16) %5, i64 noundef %6, i64 noundef 16)
  ret void
}

; Function Attrs: mustprogress nounwind uwtable
define linkonce_odr hidden noundef ptr @_ZN4llvm25SmallVectorTemplateCommonINS_9MCOperandEvE5beginEv(ptr noundef nonnull align 8 dereferenceable(16) %0) #0 comdat align 2 {
  %2 = alloca ptr, align 8
  store ptr %0, ptr %2, align 8
  %3 = load ptr, ptr %2, align 8
  %4 = getelementptr inbounds nuw %"class.llvm::SmallVectorBase", ptr %3, i32 0, i32 0
  %5 = load ptr, ptr %4, align 8
  ret ptr %5
}

; Function Attrs: mustprogress nounwind uwtable
define linkonce_odr hidden noundef ptr @_ZN4llvm25SmallVectorTemplateCommonINS_9MCOperandEvE32reserveForParamAndGetAddressImplINS_23SmallVectorTemplateBaseIS1_Lb1EEEEEPKS1_PT_RS6_m(ptr noundef %0, ptr noundef nonnull align 8 dereferenceable(16) %1, i64 noundef %2) #0 comdat align 2 {
  %4 = alloca ptr, align 8
  %5 = alloca ptr, align 8
  %6 = alloca ptr, align 8
  %7 = alloca i64, align 8
  %8 = alloca i64, align 8
  %9 = alloca i8, align 1
  %10 = alloca i64, align 8
  store ptr %0, ptr %5, align 8
  store ptr %1, ptr %6, align 8
  store i64 %2, ptr %7, align 8
  %11 = load ptr, ptr %5, align 8
  %12 = call noundef i64 @_ZNK4llvm15SmallVectorBaseIjE4sizeEv(ptr noundef nonnull align 8 dereferenceable(16) %11)
  %13 = load i64, ptr %7, align 8
  %14 = add i64 %12, %13
  store i64 %14, ptr %8, align 8
  %15 = load i64, ptr %8, align 8
  %16 = load ptr, ptr %5, align 8
  %17 = call noundef i64 @_ZNK4llvm15SmallVectorBaseIjE8capacityEv(ptr noundef nonnull align 8 dereferenceable(16) %16)
  %18 = icmp ule i64 %15, %17
  br i1 %18, label %19, label %21

19:                                               ; preds = %3
  %20 = load ptr, ptr %6, align 8
  store ptr %20, ptr %4, align 8
  br label %35

21:                                               ; preds = %3
  store i8 0, ptr %9, align 1
  store i64 -1, ptr %10, align 8
  %22 = load ptr, ptr %5, align 8
  %23 = load i64, ptr %8, align 8
  call void @_ZN4llvm23SmallVectorTemplateBaseINS_9MCOperandELb1EE4growEm(ptr noundef nonnull align 8 dereferenceable(16) %22, i64 noundef %23)
  %24 = load i8, ptr %9, align 1
  %25 = trunc i8 %24 to i1
  br i1 %25, label %26, label %31

26:                                               ; preds = %21
  %27 = load ptr, ptr %5, align 8
  %28 = call noundef ptr @_ZN4llvm25SmallVectorTemplateCommonINS_9MCOperandEvE5beginEv(ptr noundef nonnull align 8 dereferenceable(16) %27)
  %29 = load i64, ptr %10, align 8
  %30 = getelementptr inbounds %"class.llvm::MCOperand", ptr %28, i64 %29
  br label %33

31:                                               ; preds = %21
  %32 = load ptr, ptr %6, align 8
  br label %33

33:                                               ; preds = %31, %26
  %34 = phi ptr [ %30, %26 ], [ %32, %31 ]
  store ptr %34, ptr %4, align 8
  br label %35

35:                                               ; preds = %33, %19
  %36 = load ptr, ptr %4, align 8
  ret ptr %36
}

; Function Attrs: mustprogress nounwind uwtable
define linkonce_odr hidden noundef ptr @_ZN4llvm25SmallVectorTemplateCommonINS_9MCOperandEvE3endEv(ptr noundef nonnull align 8 dereferenceable(16) %0) #0 comdat align 2 {
  %2 = alloca ptr, align 8
  store ptr %0, ptr %2, align 8
  %3 = load ptr, ptr %2, align 8
  %4 = call noundef ptr @_ZN4llvm25SmallVectorTemplateCommonINS_9MCOperandEvE5beginEv(ptr noundef nonnull align 8 dereferenceable(16) %3)
  %5 = call noundef i64 @_ZNK4llvm15SmallVectorBaseIjE4sizeEv(ptr noundef nonnull align 8 dereferenceable(16) %3)
  %6 = getelementptr inbounds %"class.llvm::MCOperand", ptr %4, i64 %5
  ret ptr %6
}

; Function Attrs: mustprogress nounwind uwtable
define linkonce_odr hidden noundef ptr @_ZN4llvm23SmallVectorTemplateBaseINS_9MCOperandELb1EE28reserveForParamAndGetAddressERS1_m(ptr noundef nonnull align 8 dereferenceable(16) %0, ptr noundef nonnull align 8 dereferenceable(16) %1, i64 noundef %2) #0 comdat align 2 {
  %4 = alloca ptr, align 8
  %5 = alloca ptr, align 8
  %6 = alloca i64, align 8
  store ptr %0, ptr %4, align 8
  store ptr %1, ptr %5, align 8
  store i64 %2, ptr %6, align 8
  %7 = load ptr, ptr %4, align 8
  %8 = load ptr, ptr %5, align 8
  %9 = load i64, ptr %6, align 8
  %10 = call noundef ptr @_ZN4llvm25SmallVectorTemplateCommonINS_9MCOperandEvE32reserveForParamAndGetAddressImplINS_23SmallVectorTemplateBaseIS1_Lb1EEEEEPKS1_PT_RS6_m(ptr noundef %7, ptr noundef nonnull align 8 dereferenceable(16) %8, i64 noundef %9)
  ret ptr %10
}

; Function Attrs: mustprogress nounwind uwtable
define linkonce_odr hidden void @_ZN4llvm23SmallVectorTemplateBaseINS_9MCOperandELb1EE9push_backES1_(ptr noundef nonnull align 8 dereferenceable(16) %0, i8 %1, i64 %2) #0 comdat align 2 {
  %4 = alloca %"class.llvm::MCOperand", align 8
  %5 = alloca ptr, align 8
  %6 = alloca ptr, align 8
  %7 = getelementptr inbounds nuw { i8, i64 }, ptr %4, i32 0, i32 0
  store i8 %1, ptr %7, align 8
  %8 = getelementptr inbounds nuw { i8, i64 }, ptr %4, i32 0, i32 1
  store i64 %2, ptr %8, align 8
  store ptr %0, ptr %5, align 8
  %9 = load ptr, ptr %5, align 8
  %10 = call noundef ptr @_ZN4llvm23SmallVectorTemplateBaseINS_9MCOperandELb1EE28reserveForParamAndGetAddressERS1_m(ptr noundef nonnull align 8 dereferenceable(16) %9, ptr noundef nonnull align 8 dereferenceable(16) %4, i64 noundef 1)
  store ptr %10, ptr %6, align 8
  %11 = call noundef ptr @_ZN4llvm25SmallVectorTemplateCommonINS_9MCOperandEvE3endEv(ptr noundef nonnull align 8 dereferenceable(16) %9)
  %12 = load ptr, ptr %6, align 8
  call void @llvm.memcpy.p0.p0.i64(ptr align 1 %11, ptr align 8 %12, i64 16, i1 false)
  %13 = call noundef i64 @_ZNK4llvm15SmallVectorBaseIjE4sizeEv(ptr noundef nonnull align 8 dereferenceable(16) %9)
  %14 = add i64 %13, 1
  call void @_ZN4llvm15SmallVectorBaseIjE8set_sizeEm(ptr noundef nonnull align 8 dereferenceable(16) %9, i64 noundef %14)
  ret void
}

; Function Attrs: mustprogress nounwind uwtable
define linkonce_odr hidden noundef i32 @_ZNK4llvm10MCRegister2idEv(ptr noundef nonnull align 4 dereferenceable(4) %0) #0 comdat align 2 {
  %2 = alloca ptr, align 8
  store ptr %0, ptr %2, align 8
  %3 = load ptr, ptr %2, align 8
  %4 = getelementptr inbounds nuw %"class.llvm::MCRegister", ptr %3, i32 0, i32 0
  %5 = load i32, ptr %4, align 4
  ret i32 %5
}

; Function Attrs: mustprogress nounwind uwtable
define linkonce_odr hidden void @_ZN4llvm9MCOperandC2Ev(ptr noundef nonnull align 8 dereferenceable(16) %0) unnamed_addr #0 comdat align 2 {
  %2 = alloca ptr, align 8
  store ptr %0, ptr %2, align 8
  %3 = load ptr, ptr %2, align 8
  %4 = getelementptr inbounds nuw %"class.llvm::MCOperand", ptr %3, i32 0, i32 0
  store i8 0, ptr %4, align 8
  %5 = getelementptr inbounds nuw %"class.llvm::MCOperand", ptr %3, i32 0, i32 1
  store i64 0, ptr %5, align 8
  ret void
}

; Function Attrs: mustprogress nounwind uwtable
define linkonce_odr hidden void @_ZN4llvm6MCInst10addOperandENS_9MCOperandE(ptr noundef nonnull align 8 dereferenceable(128) %0, i8 %1, i64 %2) #0 comdat align 2 {
  %4 = alloca %"class.llvm::MCOperand", align 8
  %5 = alloca ptr, align 8
  %6 = alloca %"class.llvm::MCOperand", align 8
  %7 = getelementptr inbounds nuw { i8, i64 }, ptr %4, i32 0, i32 0
  store i8 %1, ptr %7, align 8
  %8 = getelementptr inbounds nuw { i8, i64 }, ptr %4, i32 0, i32 1
  store i64 %2, ptr %8, align 8
  store ptr %0, ptr %5, align 8
  %9 = load ptr, ptr %5, align 8
  %10 = getelementptr inbounds nuw %"class.llvm::MCInst", ptr %9, i32 0, i32 3
  call void @llvm.memcpy.p0.p0.i64(ptr align 8 %6, ptr align 8 %4, i64 16, i1 false)
  %11 = getelementptr inbounds nuw { i8, i64 }, ptr %6, i32 0, i32 0
  %12 = load i8, ptr %11, align 8
  %13 = getelementptr inbounds nuw { i8, i64 }, ptr %6, i32 0, i32 1
  %14 = load i64, ptr %13, align 8
  call void @_ZN4llvm23SmallVectorTemplateBaseINS_9MCOperandELb1EE9push_backES1_(ptr noundef nonnull align 8 dereferenceable(16) %10, i8 %12, i64 %14)
  ret void
}

; Function Attrs: mustprogress nounwind uwtable
define linkonce_odr hidden { i8, i64 } @_ZN4llvm9MCOperand9createRegENS_10MCRegisterE(i32 %0) #0 comdat align 2 {
  %2 = alloca %"class.llvm::MCOperand", align 8
  %3 = alloca %"class.llvm::MCRegister", align 4
  %4 = getelementptr inbounds nuw %"class.llvm::MCRegister", ptr %3, i32 0, i32 0
  store i32 %0, ptr %4, align 4
  call void @_ZN4llvm9MCOperandC2Ev(ptr noundef nonnull align 8 dereferenceable(16) %2)
  %5 = getelementptr inbounds nuw %"class.llvm::MCOperand", ptr %2, i32 0, i32 0
  store i8 1, ptr %5, align 8
  %6 = call noundef i32 @_ZNK4llvm10MCRegister2idEv(ptr noundef nonnull align 4 dereferenceable(4) %3)
  %7 = getelementptr inbounds nuw %"class.llvm::MCOperand", ptr %2, i32 0, i32 1
  store i32 %6, ptr %7, align 8
  %8 = load { i8, i64 }, ptr %2, align 8
  ret { i8, i64 } %8
}

; Function Attrs: mustprogress nounwind uwtable
define linkonce_odr hidden void @_ZN4llvm10MCRegisterC2Ej(ptr noundef nonnull align 4 dereferenceable(4) %0, i32 noundef %1) unnamed_addr #0 comdat align 2 {
  %3 = alloca ptr, align 8
  %4 = alloca i32, align 4
  store ptr %0, ptr %3, align 8
  store i32 %1, ptr %4, align 4
  %5 = load ptr, ptr %3, align 8
  %6 = getelementptr inbounds nuw %"class.llvm::MCRegister", ptr %5, i32 0, i32 0
  %7 = load i32, ptr %4, align 4
  store i32 %7, ptr %6, align 4
  ret void
}

; Function Attrs: mustprogress nounwind uwtable
define linkonce_odr hidden noundef i32 @_ZNK4llvm15MCRegisterClass11getRegisterEj(ptr noundef nonnull align 8 dereferenceable(32) %0, i32 noundef %1) #0 comdat align 2 {
  %3 = alloca ptr, align 8
  %4 = alloca i32, align 4
  store ptr %0, ptr %3, align 8
  store i32 %1, ptr %4, align 4
  %5 = load ptr, ptr %3, align 8
  %6 = getelementptr inbounds nuw %"class.llvm::MCRegisterClass", ptr %5, i32 0, i32 0
  %7 = load ptr, ptr %6, align 8
  %8 = load i32, ptr %4, align 4
  %9 = zext i32 %8 to i64
  %10 = getelementptr inbounds i16, ptr %7, i64 %9
  %11 = load i16, ptr %10, align 2
  %12 = zext i16 %11 to i32
  ret i32 %12
}

; Function Attrs: mustprogress nounwind uwtable
define internal noundef i32 @_ZL25DecodeSimpleRegisterClassILj76ELj0ELj8EEN4llvm14MCDisassembler12DecodeStatusERNS0_6MCInstEjmPKS1_(ptr noundef nonnull align 8 dereferenceable(128) %0, i32 noundef %1, i64 noundef %2, ptr noundef %3) #0 {
  %5 = alloca i32, align 4
  %6 = alloca ptr, align 8
  %7 = alloca i32, align 4
  %8 = alloca i64, align 8
  %9 = alloca ptr, align 8
  %10 = alloca i32, align 4
  %11 = alloca %"class.llvm::MCOperand", align 8
  %12 = alloca %"class.llvm::MCRegister", align 4
  store ptr %0, ptr %6, align 8
  store i32 %1, ptr %7, align 4
  store i64 %2, ptr %8, align 8
  store ptr %3, ptr %9, align 8
  %13 = load i32, ptr %7, align 4
  %14 = icmp ugt i32 %13, 7
  br i1 %14, label %15, label %16

15:                                               ; preds = %4
  store i32 0, ptr %5, align 4
  br label %33

16:                                               ; preds = %4
  %17 = load i32, ptr %7, align 4
  %18 = add i32 %17, 0
  %19 = call noundef i32 @_ZNK4llvm15MCRegisterClass11getRegisterEj(ptr noundef nonnull align 8 dereferenceable(32) getelementptr inbounds ([0 x %"class.llvm::MCRegisterClass"], ptr @_ZN4llvm24AArch64MCRegisterClassesE, i64 0, i64 76), i32 noundef %18)
  store i32 %19, ptr %10, align 4
  %20 = load ptr, ptr %6, align 8
  %21 = load i32, ptr %10, align 4
  call void @_ZN4llvm10MCRegisterC2Ej(ptr noundef nonnull align 4 dereferenceable(4) %12, i32 noundef %21)
  %22 = getelementptr inbounds nuw %"class.llvm::MCRegister", ptr %12, i32 0, i32 0
  %23 = load i32, ptr %22, align 4
  %24 = call { i8, i64 } @_ZN4llvm9MCOperand9createRegENS_10MCRegisterE(i32 %23)
  %25 = getelementptr inbounds nuw { i8, i64 }, ptr %11, i32 0, i32 0
  %26 = extractvalue { i8, i64 } %24, 0
  store i8 %26, ptr %25, align 8
  %27 = getelementptr inbounds nuw { i8, i64 }, ptr %11, i32 0, i32 1
  %28 = extractvalue { i8, i64 } %24, 1
  store i64 %28, ptr %27, align 8
  %29 = getelementptr inbounds nuw { i8, i64 }, ptr %11, i32 0, i32 0
  %30 = load i8, ptr %29, align 8
  %31 = getelementptr inbounds nuw { i8, i64 }, ptr %11, i32 0, i32 1
  %32 = load i64, ptr %31, align 8
  call void @_ZN4llvm6MCInst10addOperandENS_9MCOperandE(ptr noundef nonnull align 8 dereferenceable(128) %20, i8 %30, i64 %32)
  store i32 3, ptr %5, align 4
  br label %33

33:                                               ; preds = %16, %15
  %34 = load i32, ptr %5, align 4
  ret i32 %34
}